target datalayout = "e-m:e-p270:32:32-p271:32:32-p272:64:64-i64:64-i128:128-f80:128-n8:16:32:64-S128"
target triple = "x86_64-pc-linux-gnu"

%"class.pstd::pmr::polymorphic_allocator" = type { ptr }
%"class.pbrt::ColorEncoding" = type { %"class.pbrt::TaggedPointer" }
%"class.pbrt::TaggedPointer" = type { i64 }

@_ZN4pbrt13ColorEncoding6LinearE = dso_local global { i64 } zeroinitializer, align 8
@_ZN4pbrt13ColorEncoding4sRGBE = dso_local global { i64 } zeroinitializer, align 8

; Function Attrs: mustprogress uwtable
define linkonce_odr dso_local noundef ptr @_ZN4pstd3pmr15memory_resource8allocateEmm(ptr noundef nonnull align 8 dereferenceable(8) %0, i64 noundef %1, i64 noundef %2) #1 comdat align 2 {
  %4 = alloca ptr, align 8
  %5 = alloca ptr, align 8
  %6 = alloca i64, align 8
  %7 = alloca i64, align 8
  store ptr %0, ptr %5, align 8, !tbaa !239
  store i64 %1, ptr %6, align 8, !tbaa !39
  store i64 %2, ptr %7, align 8, !tbaa !39
  %8 = load ptr, ptr %5, align 8
  %9 = load i64, ptr %6, align 8, !tbaa !39
  %10 = icmp eq i64 %9, 0
  br i1 %10, label %11, label %12

11:                                               ; preds = %3
  store ptr null, ptr %4, align 8
  br label %19

12:                                               ; preds = %3
  %13 = load i64, ptr %6, align 8, !tbaa !39
  %14 = load i64, ptr %7, align 8, !tbaa !39
  %15 = load ptr, ptr %8, align 8, !tbaa !180
  %16 = getelementptr inbounds ptr, ptr %15, i64 2
  %17 = load ptr, ptr %16, align 8
  %18 = call noundef ptr %17(ptr noundef nonnull align 8 dereferenceable(8) %8, i64 noundef %13, i64 noundef %14)
  store ptr %18, ptr %4, align 8
  br label %19

19:                                               ; preds = %12, %11
  %20 = load ptr, ptr %4, align 8
  ret ptr %20
}

; Function Attrs: mustprogress nounwind uwtable
define linkonce_odr dso_local noundef ptr @_ZNK4pstd3pmr21polymorphic_allocatorISt4byteE8resourceEv(ptr noundef nonnull align 8 dereferenceable(8) %0) #6 comdat align 2 {
  %2 = alloca ptr, align 8
  store ptr %0, ptr %2, align 8, !tbaa !55
  %3 = load ptr, ptr %2, align 8
  %4 = getelementptr inbounds nuw %"class.pstd::pmr::polymorphic_allocator", ptr %3, i32 0, i32 0
  %5 = load ptr, ptr %4, align 8, !tbaa !236
  ret ptr %5
}

; Function Attrs: mustprogress uwtable
define linkonce_odr dso_local noundef ptr @_ZN4pstd3pmr21polymorphic_allocatorISt4byteE14allocate_bytesEmm(ptr noundef nonnull align 8 dereferenceable(8) %0, i64 noundef %1, i64 noundef %2) #1 comdat align 2 {
  %4 = alloca ptr, align 8
  %5 = alloca i64, align 8
  %6 = alloca i64, align 8
  store ptr %0, ptr %4, align 8, !tbaa !55
  store i64 %1, ptr %5, align 8, !tbaa !39
  store i64 %2, ptr %6, align 8, !tbaa !39
  %7 = load ptr, ptr %4, align 8
  %8 = call noundef ptr @_ZNK4pstd3pmr21polymorphic_allocatorISt4byteE8resourceEv(ptr noundef nonnull align 8 dereferenceable(8) %7)
  %9 = load i64, ptr %5, align 8, !tbaa !39
  %10 = load i64, ptr %6, align 8, !tbaa !39
  %11 = call noundef ptr @_ZN4pstd3pmr15memory_resource8allocateEmm(ptr noundef nonnull align 8 dereferenceable(8) %8, i64 noundef %9, i64 noundef %10)
  ret ptr %11
}

; Function Attrs: mustprogress nounwind uwtable
define linkonce_odr dso_local void @_ZN4pbrt13TaggedPointerIJNS_19LinearColorEncodingENS_17sRGBColorEncodingENS_18GammaColorEncodingEEEC2IS2_EEPT_(ptr noundef nonnull align 8 dereferenceable(8) %0, ptr noundef %1) unnamed_addr #6 comdat align 2 {
  %3 = alloca ptr, align 8
  %4 = alloca ptr, align 8
  %5 = alloca i64, align 8
  %6 = alloca i32, align 4
  store ptr %0, ptr %3, align 8, !tbaa !93
  store ptr %1, ptr %4, align 8, !tbaa !66
  %7 = load ptr, ptr %3, align 8
  %8 = getelementptr inbounds nuw %"class.pbrt::TaggedPointer", ptr %7, i32 0, i32 0
  store i64 0, ptr %8, align 8, !tbaa !95
  call void @llvm.lifetime.start.p0(i64 8, ptr %5) #9
  %9 = load ptr, ptr %4, align 8, !tbaa !66
  %10 = ptrtoint ptr %9 to i64
  store i64 %10, ptr %5, align 8, !tbaa !39
  br label %11

11:                                               ; preds = %2
  br label %12

12:                                               ; preds = %11
  br label %13

13:                                               ; preds = %12
  call void @llvm.lifetime.start.p0(i64 4, ptr %6) #9
  store i32 2, ptr %6, align 4, !tbaa !23
  %14 = load i64, ptr %5, align 8, !tbaa !39
  %15 = or i64 %14, 288230376151711744
  %16 = getelementptr inbounds nuw %"class.pbrt::TaggedPointer", ptr %7, i32 0, i32 0
  store i64 %15, ptr %16, align 8, !tbaa !95
  call void @llvm.lifetime.end.p0(i64 4, ptr %6) #9
  call void @llvm.lifetime.end.p0(i64 8, ptr %5) #9
  ret void
}

; Function Attrs: mustprogress nounwind uwtable
define linkonce_odr dso_local void @_ZN4pstd3pmr21polymorphic_allocatorISt4byteE9constructIN4pbrt17sRGBColorEncodingEJEEEvPT_DpOT0_(ptr noundef nonnull align 8 dereferenceable(8) %0, ptr noundef %1) #6 comdat align 2 {
  %3 = alloca ptr, align 8
  %4 = alloca ptr, align 8
  store ptr %0, ptr %3, align 8, !tbaa !55
  store ptr %1, ptr %4, align 8, !tbaa !66
  ret void
}

; Function Attrs: mustprogress uwtable
define linkonce_odr dso_local noundef ptr @_ZN4pstd3pmr21polymorphic_allocatorISt4byteE15allocate_objectIN4pbrt17sRGBColorEncodingEEEPT_m(ptr noundef nonnull align 8 dereferenceable(8) %0, i64 noundef %1) #1 comdat align 2 {
  %3 = alloca ptr, align 8
  %4 = alloca i64, align 8
  store ptr %0, ptr %3, align 8, !tbaa !55
  store i64 %1, ptr %4, align 8, !tbaa !39
  %5 = load ptr, ptr %3, align 8
  %6 = load i64, ptr %4, align 8, !tbaa !39
  %7 = mul i64 %6, 1
  %8 = call noundef ptr @_ZN4pstd3pmr21polymorphic_allocatorISt4byteE14allocate_bytesEmm(ptr noundef nonnull align 8 dereferenceable(8) %5, i64 noundef %7, i64 noundef 1)
  ret ptr %8
}

; Function Attrs: mustprogress nounwind uwtable
define linkonce_odr dso_local noundef nonnull align 8 dereferenceable(8) ptr @_ZN4pbrt13TaggedPointerIJNS_19LinearColorEncodingENS_17sRGBColorEncodingENS_18GammaColorEncodingEEEaSERKS4_(ptr noundef nonnull align 8 dereferenceable(8) %0, ptr noundef nonnull align 8 dereferenceable(8) %1) #6 comdat align 2 {
  %3 = alloca ptr, align 8
  %4 = alloca ptr, align 8
  store ptr %0, ptr %3, align 8, !tbaa !93
  store ptr %1, ptr %4, align 8, !tbaa !93
  %5 = load ptr, ptr %3, align 8
  %6 = load ptr, ptr %4, align 8, !tbaa !93
  %7 = getelementptr inbounds nuw %"class.pbrt::TaggedPointer", ptr %6, i32 0, i32 0
  %8 = load i64, ptr %7, align 8, !tbaa !95
  %9 = getelementptr inbounds nuw %"class.pbrt::TaggedPointer", ptr %5, i32 0, i32 0
  store i64 %8, ptr %9, align 8, !tbaa !95
  ret ptr %5
}

; Function Attrs: mustprogress nounwind uwtable
define linkonce_odr dso_local void @_ZN4pbrt13TaggedPointerIJNS_19LinearColorEncodingENS_17sRGBColorEncodingENS_18GammaColorEncodingEEEC2IS1_EEPT_(ptr noundef nonnull align 8 dereferenceable(8) %0, ptr noundef %1) unnamed_addr #6 comdat align 2 {
  %3 = alloca ptr, align 8
  %4 = alloca ptr, align 8
  %5 = alloca i64, align 8
  %6 = alloca i32, align 4
  store ptr %0, ptr %3, align 8, !tbaa !93
  store ptr %1, ptr %4, align 8, !tbaa !89
  %7 = load ptr, ptr %3, align 8
  %8 = getelementptr inbounds nuw %"class.pbrt::TaggedPointer", ptr %7, i32 0, i32 0
  store i64 0, ptr %8, align 8, !tbaa !95
  call void @llvm.lifetime.start.p0(i64 8, ptr %5) #9
  %9 = load ptr, ptr %4, align 8, !tbaa !89
  %10 = ptrtoint ptr %9 to i64
  store i64 %10, ptr %5, align 8, !tbaa !39
  br label %11

11:                                               ; preds = %2
  br label %12

12:                                               ; preds = %11
  br label %13

13:                                               ; preds = %12
  call void @llvm.lifetime.start.p0(i64 4, ptr %6) #9
  store i32 1, ptr %6, align 4, !tbaa !23
  %14 = load i64, ptr %5, align 8, !tbaa !39
  %15 = or i64 %14, 144115188075855872
  %16 = getelementptr inbounds nuw %"class.pbrt::TaggedPointer", ptr %7, i32 0, i32 0
  store i64 %15, ptr %16, align 8, !tbaa !95
  call void @llvm.lifetime.end.p0(i64 4, ptr %6) #9
  call void @llvm.lifetime.end.p0(i64 8, ptr %5) #9
  ret void
}

; Function Attrs: mustprogress nounwind uwtable
define linkonce_odr dso_local void @_ZN4pstd3pmr21polymorphic_allocatorISt4byteE9constructIN4pbrt19LinearColorEncodingEJEEEvPT_DpOT0_(ptr noundef nonnull align 8 dereferenceable(8) %0, ptr noundef %1) #6 comdat align 2 {
  %3 = alloca ptr, align 8
  %4 = alloca ptr, align 8
  store ptr %0, ptr %3, align 8, !tbaa !55
  store ptr %1, ptr %4, align 8, !tbaa !89
  ret void
}

; Function Attrs: mustprogress uwtable
define linkonce_odr dso_local noundef ptr @_ZN4pstd3pmr21polymorphic_allocatorISt4byteE15allocate_objectIN4pbrt19LinearColorEncodingEEEPT_m(ptr noundef nonnull align 8 dereferenceable(8) %0, i64 noundef %1) #1 comdat align 2 {
  %3 = alloca ptr, align 8
  %4 = alloca i64, align 8
  store ptr %0, ptr %3, align 8, !tbaa !55
  store i64 %1, ptr %4, align 8, !tbaa !39
  %5 = load ptr, ptr %3, align 8
  %6 = load i64, ptr %4, align 8, !tbaa !39
  %7 = mul i64 %6, 1
  %8 = call noundef ptr @_ZN4pstd3pmr21polymorphic_allocatorISt4byteE14allocate_bytesEmm(ptr noundef nonnull align 8 dereferenceable(8) %5, i64 noundef %7, i64 noundef 1)
  ret ptr %8
}

; Function Attrs: inlinehint mustprogress uwtable
define linkonce_odr dso_local void @_ZN4pbrt13ColorEncodingCI2NS_13TaggedPointerIJNS_19LinearColorEncodingENS_17sRGBColorEncodingENS_18GammaColorEncodingEEEEIS3_EEPT_(ptr noundef nonnull align 8 dereferenceable(8) %0, ptr noundef %1) unnamed_addr #3 comdat align 2 {
  %3 = alloca ptr, align 8
  %4 = alloca ptr, align 8
  store ptr %0, ptr %3, align 8, !tbaa !91
  store ptr %1, ptr %4, align 8, !tbaa !66
  %5 = load ptr, ptr %3, align 8
  %6 = load ptr, ptr %4, align 8, !tbaa !66
  call void @_ZN4pbrt13TaggedPointerIJNS_19LinearColorEncodingENS_17sRGBColorEncodingENS_18GammaColorEncodingEEEC2IS2_EEPT_(ptr noundef nonnull align 8 dereferenceable(8) %5, ptr noundef %6)
  ret void
}

; Function Attrs: mustprogress uwtable
define linkonce_odr dso_local noundef ptr @_ZN4pstd3pmr21polymorphic_allocatorISt4byteE10new_objectIN4pbrt17sRGBColorEncodingEJEEEPT_DpOT0_(ptr noundef nonnull align 8 dereferenceable(8) %0) #1 comdat align 2 {
  %2 = alloca ptr, align 8
  %3 = alloca ptr, align 8
  store ptr %0, ptr %2, align 8, !tbaa !55
  %4 = load ptr, ptr %2, align 8
  call void @llvm.lifetime.start.p0(i64 8, ptr %3) #9
  %5 = call noundef ptr @_ZN4pstd3pmr21polymorphic_allocatorISt4byteE15allocate_objectIN4pbrt17sRGBColorEncodingEEEPT_m(ptr noundef nonnull align 8 dereferenceable(8) %4, i64 noundef 1)
  store ptr %5, ptr %3, align 8, !tbaa !66
  %6 = load ptr, ptr %3, align 8, !tbaa !66
  call void @_ZN4pstd3pmr21polymorphic_allocatorISt4byteE9constructIN4pbrt17sRGBColorEncodingEJEEEvPT_DpOT0_(ptr noundef nonnull align 8 dereferenceable(8) %4, ptr noundef %6)
  %7 = load ptr, ptr %3, align 8, !tbaa !66
  call void @llvm.lifetime.end.p0(i64 8, ptr %3) #9
  ret ptr %7
}

; Function Attrs: inlinehint mustprogress uwtable
define linkonce_odr dso_local noundef nonnull align 8 dereferenceable(8) ptr @_ZN4pbrt13ColorEncodingaSEOS0_(ptr noundef nonnull align 8 dereferenceable(8) %0, ptr noundef nonnull align 8 dereferenceable(8) %1) #3 comdat align 2 {
  %3 = alloca ptr, align 8
  %4 = alloca ptr, align 8
  store ptr %0, ptr %3, align 8, !tbaa !91
  store ptr %1, ptr %4, align 8, !tbaa !91
  %5 = load ptr, ptr %3, align 8
  %6 = load ptr, ptr %4, align 8, !tbaa !91
  %7 = call noundef nonnull align 8 dereferenceable(8) ptr @_ZN4pbrt13TaggedPointerIJNS_19LinearColorEncodingENS_17sRGBColorEncodingENS_18GammaColorEncodingEEEaSERKS4_(ptr noundef nonnull align 8 dereferenceable(8) %5, ptr noundef nonnull align 8 dereferenceable(8) %6)
  ret ptr %5
}

; Function Attrs: inlinehint mustprogress uwtable
define linkonce_odr dso_local void @_ZN4pbrt13ColorEncodingCI2NS_13TaggedPointerIJNS_19LinearColorEncodingENS_17sRGBColorEncodingENS_18GammaColorEncodingEEEEIS2_EEPT_(ptr noundef nonnull align 8 dereferenceable(8) %0, ptr noundef %1) unnamed_addr #3 comdat align 2 {
  %3 = alloca ptr, align 8
  %4 = alloca ptr, align 8
  store ptr %0, ptr %3, align 8, !tbaa !91
  store ptr %1, ptr %4, align 8, !tbaa !89
  %5 = load ptr, ptr %3, align 8
  %6 = load ptr, ptr %4, align 8, !tbaa !89
  call void @_ZN4pbrt13TaggedPointerIJNS_19LinearColorEncodingENS_17sRGBColorEncodingENS_18GammaColorEncodingEEEC2IS1_EEPT_(ptr noundef nonnull align 8 dereferenceable(8) %5, ptr noundef %6)
  ret void
}

; Function Attrs: mustprogress uwtable
define linkonce_odr dso_local noundef ptr @_ZN4pstd3pmr21polymorphic_allocatorISt4byteE10new_objectIN4pbrt19LinearColorEncodingEJEEEPT_DpOT0_(ptr noundef nonnull align 8 dereferenceable(8) %0) #1 comdat align 2 {
  %2 = alloca ptr, align 8
  %3 = alloca ptr, align 8
  store ptr %0, ptr %2, align 8, !tbaa !55
  %4 = load ptr, ptr %2, align 8
  call void @llvm.lifetime.start.p0(i64 8, ptr %3) #9
  %5 = call noundef ptr @_ZN4pstd3pmr21polymorphic_allocatorISt4byteE15allocate_objectIN4pbrt19LinearColorEncodingEEEPT_m(ptr noundef nonnull align 8 dereferenceable(8) %4, i64 noundef 1)
  store ptr %5, ptr %3, align 8, !tbaa !89
  %6 = load ptr, ptr %3, align 8, !tbaa !89
  call void @_ZN4pstd3pmr21polymorphic_allocatorISt4byteE9constructIN4pbrt19LinearColorEncodingEJEEEvPT_DpOT0_(ptr noundef nonnull align 8 dereferenceable(8) %4, ptr noundef %6)
  %7 = load ptr, ptr %3, align 8, !tbaa !89
  call void @llvm.lifetime.end.p0(i64 8, ptr %3) #9
  ret ptr %7
}

; Function Attrs: mustprogress uwtable
define dso_local void @_ZN4pbrt13ColorEncoding4InitEN4pstd3pmr21polymorphic_allocatorISt4byteEE(ptr %0) #1 align 2 {
  %2 = alloca %"class.pstd::pmr::polymorphic_allocator", align 8
  %3 = alloca %"class.pbrt::ColorEncoding", align 8
  %4 = alloca %"class.pbrt::ColorEncoding", align 8
  %5 = getelementptr inbounds nuw %"class.pstd::pmr::polymorphic_allocator", ptr %2, i32 0, i32 0
  store ptr %0, ptr %5, align 8
  call void @llvm.lifetime.start.p0(i64 8, ptr %3) #9
  %6 = call noundef ptr @_ZN4pstd3pmr21polymorphic_allocatorISt4byteE10new_objectIN4pbrt19LinearColorEncodingEJEEEPT_DpOT0_(ptr noundef nonnull align 8 dereferenceable(8) %2)
  call void @_ZN4pbrt13ColorEncodingCI2NS_13TaggedPointerIJNS_19LinearColorEncodingENS_17sRGBColorEncodingENS_18GammaColorEncodingEEEEIS2_EEPT_(ptr noundef nonnull align 8 dereferenceable(8) %3, ptr noundef %6)
  %7 = call noundef nonnull align 8 dereferenceable(8) ptr @_ZN4pbrt13ColorEncodingaSEOS0_(ptr noundef nonnull align 8 dereferenceable(8) @_ZN4pbrt13ColorEncoding6LinearE, ptr noundef nonnull align 8 dereferenceable(8) %3)
  call void @llvm.lifetime.end.p0(i64 8, ptr %3) #9
  call void @llvm.lifetime.start.p0(i64 8, ptr %4) #9
  %8 = call noundef ptr @_ZN4pstd3pmr21polymorphic_allocatorISt4byteE10new_objectIN4pbrt17sRGBColorEncodingEJEEEPT_DpOT0_(ptr noundef nonnull align 8 dereferenceable(8) %2)
  call void @_ZN4pbrt13ColorEncodingCI2NS_13TaggedPointerIJNS_19LinearColorEncodingENS_17sRGBColorEncodingENS_18GammaColorEncodingEEEEIS3_EEPT_(ptr noundef nonnull align 8 dereferenceable(8) %4, ptr noundef %8)
  %9 = call noundef nonnull align 8 dereferenceable(8) ptr @_ZN4pbrt13ColorEncodingaSEOS0_(ptr noundef nonnull align 8 dereferenceable(8) @_ZN4pbrt13ColorEncoding4sRGBE, ptr noundef nonnull align 8 dereferenceable(8) %4)
  call void @llvm.lifetime.end.p0(i64 8, ptr %4) #9
  ret void
}