; Function Attrs: mustprogress uwtable
define dso_local void @_ZN4pbrt13ColorEncoding4InitEN4pstd3pmr21polymorphic_allocatorISt4byteEE(ptr %0) local_unnamed_addr #0 align 2 {
  %2 = load ptr, ptr %0, align 8, !tbaa !32
  %3 = getelementptr inbounds nuw i8, ptr %2, i64 16
  %4 = load ptr, ptr %3, align 8
  %5 = tail call noundef ptr %4(ptr noundef nonnull align 8 dereferenceable(8) %0, i64 noundef 1, i64 noundef 1)
  %6 = ptrtoint ptr %5 to i64
  %7 = or i64 %6, 144115188075855872
  store i64 %7, ptr @_ZN4pbrt13ColorEncoding6LinearE, align 8, !tbaa !47
  %8 = load ptr, ptr %0, align 8, !tbaa !32
  %9 = getelementptr inbounds nuw i8, ptr %8, i64 16
  %10 = load ptr, ptr %9, align 8
  %11 = tail call noundef ptr %10(ptr noundef nonnull align 8 dereferenceable(8) %0, i64 noundef 1, i64 noundef 1)
  %12 = ptrtoint ptr %11 to i64
  %13 = or i64 %12, 288230376151711744
  store i64 %13, ptr @_ZN4pbrt13ColorEncoding4sRGBE, align 8, !tbaa !47
  ret void
}